target datalayout = "e-m:e-p270:32:32-p271:32:32-p272:64:64-i64:64-i128:128-f80:128-n8:16:32:64-S128"
target triple = "x86_64-pc-linux-gnu"

%struct.Gia_Man_t_ = type { ptr, ptr, i32, i32, i32, i32, ptr, ptr, i32, i32, i32, ptr, ptr, %struct.Vec_Int_t_, %struct.Vec_Int_t_, i32, i32, i32, %struct.Vec_Int_t_, ptr, ptr, ptr, i32, i32, i32, i32, ptr, ptr, ptr, ptr, ptr, i32, i32, ptr, i32, ptr, ptr, ptr, ptr, ptr, ptr, ptr, ptr, ptr, ptr, ptr, ptr, ptr, ptr, ptr, ptr, ptr, ptr, %struct.Vec_Int_t_, %struct.Vec_Int_t_, ptr, ptr, ptr, ptr, ptr, ptr, ptr, ptr, ptr, ptr, ptr, ptr, ptr, ptr, ptr, ptr, ptr, ptr, ptr, ptr, ptr, i32, float, float, ptr, ptr, i32, ptr, ptr, ptr, ptr, ptr, ptr, ptr, ptr, ptr, ptr, ptr, ptr, ptr, ptr, ptr, i64, i64, ptr, ptr, i32, i32, i32, i32, i32, i32, i32, i32, i32, i32, i32, i32, ptr, ptr, ptr, ptr, ptr, ptr, ptr, ptr, i32, i32, i32, ptr, i32, i32, ptr, ptr, ptr, ptr, ptr, ptr, i32, i32, ptr, %struct.Vec_Int_t_, %struct.Vec_Int_t_, %struct.Vec_Int_t_, ptr, ptr, ptr }
%struct.Vec_Int_t_ = type { i32, i32, ptr }
%struct.Jf_Par_t_ = type { i32, i32, i32, i32, i32, i32, i32, i32, i32, i32, i32, i32, i32, i32, i32, i32, i32, i32, i32, i32, i32, i32, i32, i32, i32, i32, i32, i32, i32, i32, i32, i32, i32, i32, i32, i32, i32, i32, i32, i32, i64, i64, i64, i64, i64, i64, i64, i64, i32, float, float, float, float, ptr, ptr }

; Function Attrs: nounwind uwtable
define internal i32 @Vec_IntSize(ptr noundef %0) #0 {
  %2 = alloca ptr, align 8
  store ptr %0, ptr %2, align 8
  %3 = load ptr, ptr %2, align 8
  %4 = getelementptr inbounds %struct.Vec_Int_t_, ptr %3, i32 0, i32 1
  %5 = load i32, ptr %4, align 4
  ret i32 %5
}

; Function Attrs: nounwind uwtable
define internal void @Vec_IntFreeP(ptr noundef %0) #0 {
  %2 = alloca ptr, align 8
  store ptr %0, ptr %2, align 8
  %3 = load ptr, ptr %2, align 8
  %4 = load ptr, ptr %3, align 8
  %5 = icmp eq ptr %4, null
  br i1 %5, label %6, label %7

6:                                                ; preds = %1
  br label %32

7:                                                ; preds = %1
  %8 = load ptr, ptr %2, align 8
  %9 = load ptr, ptr %8, align 8
  %10 = getelementptr inbounds %struct.Vec_Int_t_, ptr %9, i32 0, i32 2
  %11 = load ptr, ptr %10, align 8
  %12 = icmp ne ptr %11, null
  br i1 %12, label %13, label %21

13:                                               ; preds = %7
  %14 = load ptr, ptr %2, align 8
  %15 = load ptr, ptr %14, align 8
  %16 = getelementptr inbounds %struct.Vec_Int_t_, ptr %15, i32 0, i32 2
  %17 = load ptr, ptr %16, align 8
  call void @free(ptr noundef %17) #9
  %18 = load ptr, ptr %2, align 8
  %19 = load ptr, ptr %18, align 8
  %20 = getelementptr inbounds %struct.Vec_Int_t_, ptr %19, i32 0, i32 2
  store ptr null, ptr %20, align 8
  br label %22

21:                                               ; preds = %7
  br label %22

22:                                               ; preds = %21, %13
  %23 = load ptr, ptr %2, align 8
  %24 = load ptr, ptr %23, align 8
  %25 = icmp ne ptr %24, null
  br i1 %25, label %26, label %30

26:                                               ; preds = %22
  %27 = load ptr, ptr %2, align 8
  %28 = load ptr, ptr %27, align 8
  call void @free(ptr noundef %28) #9
  %29 = load ptr, ptr %2, align 8
  store ptr null, ptr %29, align 8
  br label %31

30:                                               ; preds = %22
  br label %31

31:                                               ; preds = %30, %26
  br label %32

32:                                               ; preds = %31, %6
  ret void
}

; Function Attrs: nounwind uwtable
define internal i32 @Gia_ManAndNum(ptr noundef %0) #0 {
  %2 = alloca ptr, align 8
  store ptr %0, ptr %2, align 8
  %3 = load ptr, ptr %2, align 8
  %4 = getelementptr inbounds %struct.Gia_Man_t_, ptr %3, i32 0, i32 4
  %5 = load i32, ptr %4, align 8
  %6 = load ptr, ptr %2, align 8
  %7 = getelementptr inbounds %struct.Gia_Man_t_, ptr %6, i32 0, i32 11
  %8 = load ptr, ptr %7, align 8
  %9 = call i32 @Vec_IntSize(ptr noundef %8)
  %10 = sub nsw i32 %5, %9
  %11 = load ptr, ptr %2, align 8
  %12 = getelementptr inbounds %struct.Gia_Man_t_, ptr %11, i32 0, i32 12
  %13 = load ptr, ptr %12, align 8
  %14 = call i32 @Vec_IntSize(ptr noundef %13)
  %15 = sub nsw i32 %10, %14
  %16 = sub nsw i32 %15, 1
  ret i32 %16
}

; Function Attrs: nounwind uwtable
define ptr @Gia_ManAigSyn2(ptr noundef %0, i32 noundef %1, i32 noundef %2, i32 noundef %3, i32 noundef %4, i32 noundef %5, i32 noundef %6, i32 noundef %7) #0 {
  %9 = alloca ptr, align 8
  %10 = alloca ptr, align 8
  %11 = alloca i32, align 4
  %12 = alloca i32, align 4
  %13 = alloca i32, align 4
  %14 = alloca i32, align 4
  %15 = alloca i32, align 4
  %16 = alloca i32, align 4
  %17 = alloca i32, align 4
  %18 = alloca ptr, align 8
  %19 = alloca ptr, align 8
  %20 = alloca ptr, align 8
  %21 = alloca %struct.Jf_Par_t_, align 8
  %22 = alloca ptr, align 8
  %23 = alloca i32, align 4
  %24 = alloca i32, align 4
  %25 = alloca i32, align 4
  %26 = alloca i32, align 4
  %27 = alloca i32, align 4
  %28 = alloca i32, align 4
  %29 = alloca i32, align 4
  store ptr %0, ptr %10, align 8
  store i32 %1, ptr %11, align 4
  store i32 %2, ptr %12, align 4
  store i32 %3, ptr %13, align 4
  store i32 %4, ptr %14, align 4
  store i32 %5, ptr %15, align 4
  store i32 %6, ptr %16, align 4
  store i32 %7, ptr %17, align 4
  store ptr %21, ptr %22, align 8
  %30 = load i32, ptr %11, align 4
  %31 = icmp ne i32 %30, 0
  br i1 %31, label %32, label %37

32:                                               ; preds = %8
  %33 = load ptr, ptr %22, align 8
  call void @Jf_ManSetDefaultPars(ptr noundef %33)
  %34 = load i32, ptr %13, align 4
  %35 = load ptr, ptr %22, align 8
  %36 = getelementptr inbounds %struct.Jf_Par_t_, ptr %35, i32 0, i32 22
  store i32 %34, ptr %36, align 8
  br label %52

37:                                               ; preds = %8
  %38 = load ptr, ptr %22, align 8
  call void @Lf_ManSetDefaultPars(ptr noundef %38)
  %39 = load i32, ptr %13, align 4
  %40 = load ptr, ptr %22, align 8
  %41 = getelementptr inbounds %struct.Jf_Par_t_, ptr %40, i32 0, i32 22
  store i32 %39, ptr %41, align 8
  %42 = load i32, ptr %12, align 4
  %43 = load ptr, ptr %22, align 8
  %44 = getelementptr inbounds %struct.Jf_Par_t_, ptr %43, i32 0, i32 21
  store i32 %42, ptr %44, align 4
  %45 = load i32, ptr %14, align 4
  %46 = load ptr, ptr %22, align 8
  %47 = getelementptr inbounds %struct.Jf_Par_t_, ptr %46, i32 0, i32 5
  store i32 %45, ptr %47, align 4
  %48 = load ptr, ptr %22, align 8
  %49 = getelementptr inbounds %struct.Jf_Par_t_, ptr %48, i32 0, i32 7
  store i32 1, ptr %49, align 4
  %50 = load ptr, ptr %22, align 8
  %51 = getelementptr inbounds %struct.Jf_Par_t_, ptr %50, i32 0, i32 1
  store i32 4, ptr %51, align 4
  br label %52

52:                                               ; preds = %37, %32
  %53 = load i32, ptr %16, align 4
  %54 = icmp ne i32 %53, 0
  br i1 %54, label %55, label %57

55:                                               ; preds = %52
  %56 = load ptr, ptr %10, align 8
  call void @Gia_ManPrintStats(ptr noundef %56, ptr noundef null)
  br label %57

57:                                               ; preds = %55, %52
  %58 = load ptr, ptr %10, align 8
  %59 = call ptr @Gia_ManDup(ptr noundef %58)
  store ptr %59, ptr %18, align 8
  %60 = load ptr, ptr %18, align 8
  %61 = load ptr, ptr %10, align 8
  call void @Gia_ManTransferTiming(ptr noundef %60, ptr noundef %61)
  %62 = load ptr, ptr %18, align 8
  %63 = call i32 @Gia_ManAndNum(ptr noundef %62)
  %64 = icmp eq i32 %63, 0
  br i1 %64, label %65, label %72

65:                                               ; preds = %57
  %66 = load ptr, ptr %18, align 8
  %67 = call ptr @Gia_ManDup(ptr noundef %66)
  store ptr %67, ptr %19, align 8
  %68 = load ptr, ptr %19, align 8
  %69 = load ptr, ptr %18, align 8
  call void @Gia_ManTransferTiming(ptr noundef %68, ptr noundef %69)
  %70 = load ptr, ptr %18, align 8
  call void @Gia_ManStop(ptr noundef %70)
  %71 = load ptr, ptr %19, align 8
  store ptr %71, ptr %9, align 8
  br label %214

72:                                               ; preds = %57
  %73 = load i32, ptr %15, align 4
  %74 = icmp ne i32 %73, 0
  br i1 %74, label %75, label %172

75:                                               ; preds = %72
  %76 = load ptr, ptr %18, align 8
  %77 = getelementptr inbounds %struct.Gia_Man_t_, ptr %76, i32 0, i32 95
  %78 = load ptr, ptr %77, align 8
  %79 = icmp eq ptr %78, null
  br i1 %79, label %80, label %172

80:                                               ; preds = %75
  %81 = load ptr, ptr %22, align 8
  %82 = getelementptr inbounds %struct.Jf_Par_t_, ptr %81, i32 0, i32 22
  %83 = load i32, ptr %82, align 8
  store i32 %83, ptr %27, align 4
  %84 = load ptr, ptr %22, align 8
  %85 = getelementptr inbounds %struct.Jf_Par_t_, ptr %84, i32 0, i32 21
  %86 = load i32, ptr %85, align 4
  store i32 %86, ptr %28, align 4
  %87 = load ptr, ptr %22, align 8
  %88 = getelementptr inbounds %struct.Jf_Par_t_, ptr %87, i32 0, i32 5
  %89 = load i32, ptr %88, align 4
  store i32 %89, ptr %29, align 4
  %90 = load ptr, ptr %22, align 8
  %91 = getelementptr inbounds %struct.Jf_Par_t_, ptr %90, i32 0, i32 22
  store i32 0, ptr %91, align 8
  %92 = load ptr, ptr %22, align 8
  %93 = getelementptr inbounds %struct.Jf_Par_t_, ptr %92, i32 0, i32 21
  store i32 0, ptr %93, align 4
  %94 = load ptr, ptr %22, align 8
  %95 = getelementptr inbounds %struct.Jf_Par_t_, ptr %94, i32 0, i32 5
  store i32 0, ptr %95, align 4
  %96 = load i32, ptr %11, align 4
  %97 = icmp ne i32 %96, 0
  br i1 %97, label %98, label %102

98:                                               ; preds = %80
  %99 = load ptr, ptr %18, align 8
  %100 = load ptr, ptr %22, align 8
  %101 = call ptr @Jf_ManPerformMapping(ptr noundef %99, ptr noundef %100)
  br label %106

102:                                              ; preds = %80
  %103 = load ptr, ptr %18, align 8
  %104 = load ptr, ptr %22, align 8
  %105 = call ptr @Lf_ManPerformMapping(ptr noundef %103, ptr noundef %104)
  br label %106

106:                                              ; preds = %102, %98
  %107 = load ptr, ptr %22, align 8
  %108 = getelementptr inbounds %struct.Jf_Par_t_, ptr %107, i32 0, i32 41
  %109 = load i64, ptr %108, align 8
  %110 = trunc i64 %109 to i32
  store i32 %110, ptr %23, align 4
  %111 = load ptr, ptr %22, align 8
  %112 = getelementptr inbounds %struct.Jf_Par_t_, ptr %111, i32 0, i32 40
  %113 = load i64, ptr %112, align 8
  %114 = trunc i64 %113 to i32
  store i32 %114, ptr %25, align 4
  %115 = load ptr, ptr %18, align 8
  %116 = call ptr @Gia_ManPerformDsdBalance(ptr noundef %115, i32 noundef 6, i32 noundef 4, i32 noundef 0, i32 noundef 0)
  store ptr %116, ptr %19, align 8
  %117 = load i32, ptr %11, align 4
  %118 = icmp ne i32 %117, 0
  br i1 %118, label %119, label %123

119:                                              ; preds = %106
  %120 = load ptr, ptr %19, align 8
  %121 = load ptr, ptr %22, align 8
  %122 = call ptr @Jf_ManPerformMapping(ptr noundef %120, ptr noundef %121)
  br label %127

123:                                              ; preds = %106
  %124 = load ptr, ptr %19, align 8
  %125 = load ptr, ptr %22, align 8
  %126 = call ptr @Lf_ManPerformMapping(ptr noundef %124, ptr noundef %125)
  br label %127

127:                                              ; preds = %123, %119
  %128 = load ptr, ptr %22, align 8
  %129 = getelementptr inbounds %struct.Jf_Par_t_, ptr %128, i32 0, i32 41
  %130 = load i64, ptr %129, align 8
  %131 = trunc i64 %130 to i32
  store i32 %131, ptr %24, align 4
  %132 = load ptr, ptr %22, align 8
  %133 = getelementptr inbounds %struct.Jf_Par_t_, ptr %132, i32 0, i32 40
  %134 = load i64, ptr %133, align 8
  %135 = trunc i64 %134 to i32
  store i32 %135, ptr %26, align 4
  %136 = load i32, ptr %26, align 4
  %137 = load i32, ptr %25, align 4
  %138 = sub nsw i32 %137, 1
  %139 = icmp slt i32 %136, %138
  br i1 %139, label %155, label %140

140:                                              ; preds = %127
  %141 = load i32, ptr %26, align 4
  %142 = load i32, ptr %25, align 4
  %143 = add nsw i32 %142, 1
  %144 = icmp eq i32 %141, %143
  br i1 %144, label %145, label %158

145:                                              ; preds = %140
  %146 = load i32, ptr %24, align 4
  %147 = load i32, ptr %23, align 4
  %148 = sub nsw i32 %146, %147
  %149 = sitofp i32 %148 to double
  %150 = fmul double 1.000000e+02, %149
  %151 = load i32, ptr %24, align 4
  %152 = sitofp i32 %151 to double
  %153 = fdiv double %150, %152
  %154 = fcmp olt double %153, 3.000000e+00
  br i1 %154, label %155, label %158

155:                                              ; preds = %145, %127
  %156 = load ptr, ptr %18, align 8
  call void @Gia_ManStop(ptr noundef %156)
  %157 = load ptr, ptr %19, align 8
  store ptr %157, ptr %18, align 8
  br label %162

158:                                              ; preds = %145, %140
  %159 = load ptr, ptr %19, align 8
  call void @Gia_ManStop(ptr noundef %159)
  %160 = load ptr, ptr %18, align 8
  %161 = getelementptr inbounds %struct.Gia_Man_t_, ptr %160, i32 0, i32 37
  call void @Vec_IntFreeP(ptr noundef %161)
  br label %162

162:                                              ; preds = %158, %155
  %163 = load i32, ptr %27, align 4
  %164 = load ptr, ptr %22, align 8
  %165 = getelementptr inbounds %struct.Jf_Par_t_, ptr %164, i32 0, i32 22
  store i32 %163, ptr %165, align 8
  %166 = load i32, ptr %28, align 4
  %167 = load ptr, ptr %22, align 8
  %168 = getelementptr inbounds %struct.Jf_Par_t_, ptr %167, i32 0, i32 21
  store i32 %166, ptr %168, align 4
  %169 = load i32, ptr %29, align 4
  %170 = load ptr, ptr %22, align 8
  %171 = getelementptr inbounds %struct.Jf_Par_t_, ptr %170, i32 0, i32 5
  store i32 %169, ptr %171, align 4
  br label %172

172:                                              ; preds = %162, %75, %72
  %173 = load ptr, ptr %18, align 8
  %174 = load i32, ptr %17, align 4
  %175 = call ptr @Gia_ManAreaBalance(ptr noundef %173, i32 noundef 0, i32 noundef 1000000000, i32 noundef %174, i32 noundef 0)
  store ptr %175, ptr %19, align 8
  %176 = load i32, ptr %16, align 4
  %177 = icmp ne i32 %176, 0
  br i1 %177, label %178, label %180

178:                                              ; preds = %172
  %179 = load ptr, ptr %19, align 8
  call void @Gia_ManPrintStats(ptr noundef %179, ptr noundef null)
  br label %180

180:                                              ; preds = %178, %172
  %181 = load ptr, ptr %18, align 8
  call void @Gia_ManStop(ptr noundef %181)
  %182 = load i32, ptr %11, align 4
  %183 = icmp ne i32 %182, 0
  br i1 %183, label %184, label %188

184:                                              ; preds = %180
  %185 = load ptr, ptr %19, align 8
  store ptr %185, ptr %20, align 8
  %186 = load ptr, ptr %22, align 8
  %187 = call ptr @Jf_ManPerformMapping(ptr noundef %185, ptr noundef %186)
  store ptr %187, ptr %19, align 8
  br label %192

188:                                              ; preds = %180
  %189 = load ptr, ptr %19, align 8
  store ptr %189, ptr %20, align 8
  %190 = load ptr, ptr %22, align 8
  %191 = call ptr @Lf_ManPerformMapping(ptr noundef %189, ptr noundef %190)
  store ptr %191, ptr %19, align 8
  br label %192

192:                                              ; preds = %188, %184
  %193 = load i32, ptr %16, align 4
  %194 = icmp ne i32 %193, 0
  br i1 %194, label %195, label %197

195:                                              ; preds = %192
  %196 = load ptr, ptr %19, align 8
  call void @Gia_ManPrintStats(ptr noundef %196, ptr noundef null)
  br label %197

197:                                              ; preds = %195, %192
  %198 = load ptr, ptr %20, align 8
  %199 = load ptr, ptr %19, align 8
  %200 = icmp ne ptr %198, %199
  br i1 %200, label %201, label %203

201:                                              ; preds = %197
  %202 = load ptr, ptr %20, align 8
  call void @Gia_ManStop(ptr noundef %202)
  br label %203

203:                                              ; preds = %201, %197
  %204 = load ptr, ptr %19, align 8
  store ptr %204, ptr %20, align 8
  %205 = load i32, ptr %17, align 4
  %206 = call ptr @Gia_ManAreaBalance(ptr noundef %204, i32 noundef 0, i32 noundef 1000000000, i32 noundef %205, i32 noundef 0)
  store ptr %206, ptr %19, align 8
  %207 = load i32, ptr %16, align 4
  %208 = icmp ne i32 %207, 0
  br i1 %208, label %209, label %211

209:                                              ; preds = %203
  %210 = load ptr, ptr %19, align 8
  call void @Gia_ManPrintStats(ptr noundef %210, ptr noundef null)
  br label %211

211:                                              ; preds = %209, %203
  %212 = load ptr, ptr %20, align 8
  call void @Gia_ManStop(ptr noundef %212)
  %213 = load ptr, ptr %19, align 8
  store ptr %213, ptr %9, align 8
  br label %214

214:                                              ; preds = %211, %65
  %215 = load ptr, ptr %9, align 8
  ret ptr %215
}