; Function Attrs: nounwind uwtable
define ptr @Gia_ManAigSyn2(ptr noundef %0, i32 noundef %1, i32 noundef %2, i32 noundef %3, i32 noundef %4, i32 noundef %5, i32 noundef %6, i32 noundef %7) local_unnamed_addr #0 {
  %9 = alloca %struct.Jf_Par_t_, align 8
  %.not = icmp eq i32 %1, 0
  br i1 %.not, label %11, label %10

10:                                               ; preds = %8
  call void @Jf_ManSetDefaultPars(ptr noundef nonnull %9) #15
  br label %16

11:                                               ; preds = %8
  call void @Lf_ManSetDefaultPars(ptr noundef nonnull %9) #15
  %12 = getelementptr inbounds nuw i8, ptr %9, i64 84
  store i32 %2, ptr %12, align 4
  %13 = getelementptr inbounds nuw i8, ptr %9, i64 20
  store i32 %4, ptr %13, align 4
  %14 = getelementptr inbounds nuw i8, ptr %9, i64 28
  store i32 1, ptr %14, align 4
  %15 = getelementptr inbounds nuw i8, ptr %9, i64 4
  store i32 4, ptr %15, align 4
  br label %16

16:                                               ; preds = %11, %10
  %17 = getelementptr inbounds nuw i8, ptr %9, i64 88
  store i32 %3, ptr %17, align 8
  %.not90 = icmp eq i32 %6, 0
  br i1 %.not90, label %19, label %18

18:                                               ; preds = %16
  call void @Gia_ManPrintStats(ptr noundef %0, ptr noundef null) #15
  br label %19

19:                                               ; preds = %18, %16
  %20 = call ptr @Gia_ManDup(ptr noundef %0) #15
  call void @Gia_ManTransferTiming(ptr noundef %20, ptr noundef %0) #15
  %21 = getelementptr inbounds nuw i8, ptr %20, i64 24
  %22 = load i32, ptr %21, align 8
  %23 = getelementptr inbounds nuw i8, ptr %20, i64 64
  %24 = load ptr, ptr %23, align 8
  %25 = getelementptr i8, ptr %24, i64 4
  %.val.i = load i32, ptr %25, align 4
  %26 = getelementptr inbounds nuw i8, ptr %20, i64 72
  %27 = load ptr, ptr %26, align 8
  %28 = getelementptr i8, ptr %27, i64 4
  %.val3.i = load i32, ptr %28, align 4
  %29 = add i32 %.val.i, 1
  %.neg = add i32 %29, %.val3.i
  %30 = icmp eq i32 %22, %.neg
  br i1 %30, label %31, label %33

31:                                               ; preds = %19
  %32 = call ptr @Gia_ManDup(ptr noundef nonnull %20) #15
  call void @Gia_ManTransferTiming(ptr noundef %32, ptr noundef nonnull %20) #15
  br label %105

33:                                               ; preds = %19
  %.not91 = icmp eq i32 %5, 0
  br i1 %.not91, label %90, label %34

34:                                               ; preds = %33
  %35 = getelementptr inbounds nuw i8, ptr %20, i64 736
  %36 = load ptr, ptr %35, align 8
  %37 = icmp eq ptr %36, null
  br i1 %37, label %38, label %90

38:                                               ; preds = %34
  %39 = load i32, ptr %17, align 8
  %40 = getelementptr inbounds nuw i8, ptr %9, i64 84
  %41 = load i32, ptr %40, align 4
  %42 = getelementptr inbounds nuw i8, ptr %9, i64 20
  %43 = load i32, ptr %42, align 4
  store i32 0, ptr %17, align 8
  store i32 0, ptr %40, align 4
  store i32 0, ptr %42, align 4
  %44 = getelementptr inbounds nuw i8, ptr %9, i64 168
  %45 = getelementptr inbounds nuw i8, ptr %9, i64 160
  br i1 %.not, label %52, label %46

46:                                               ; preds = %38
  %47 = call ptr @Jf_ManPerformMapping(ptr noundef nonnull %20, ptr noundef nonnull %9) #15
  %48 = load i64, ptr %44, align 8
  %49 = load i64, ptr %45, align 8
  %50 = call ptr @Gia_ManPerformDsdBalance(ptr noundef nonnull %20, i32 noundef 6, i32 noundef 4, i32 noundef 0, i32 noundef 0) #15
  %51 = call ptr @Jf_ManPerformMapping(ptr noundef %50, ptr noundef nonnull %9) #15
  br label %58

52:                                               ; preds = %38
  %53 = call ptr @Lf_ManPerformMapping(ptr noundef nonnull %20, ptr noundef nonnull %9) #15
  %54 = load i64, ptr %44, align 8
  %55 = load i64, ptr %45, align 8
  %56 = call ptr @Gia_ManPerformDsdBalance(ptr noundef nonnull %20, i32 noundef 6, i32 noundef 4, i32 noundef 0, i32 noundef 0) #15
  %57 = call ptr @Lf_ManPerformMapping(ptr noundef %56, ptr noundef nonnull %9) #15
  br label %58

58:                                               ; preds = %52, %46
  %59 = phi ptr [ %56, %52 ], [ %50, %46 ]
  %.in = phi i64 [ %55, %52 ], [ %49, %46 ]
  %.in93 = phi i64 [ %54, %52 ], [ %48, %46 ]
  %60 = trunc i64 %.in93 to i32
  %61 = trunc i64 %.in to i32
  %62 = load i64, ptr %44, align 8
  %63 = trunc i64 %62 to i32
  %64 = load i64, ptr %45, align 8
  %65 = trunc i64 %64 to i32
  %66 = add nsw i32 %61, -1
  %67 = icmp sgt i32 %66, %65
  br i1 %67, label %78, label %68

68:                                               ; preds = %58
  %69 = add nsw i32 %61, 1
  %70 = icmp eq i32 %69, %65
  br i1 %70, label %71, label %79

71:                                               ; preds = %68
  %72 = sub nsw i32 %63, %60
  %73 = sitofp i32 %72 to double
  %74 = fmul double %73, 1.000000e+02
  %75 = sitofp i32 %63 to double
  %76 = fdiv double %74, %75
  %77 = fcmp olt double %76, 3.000000e+00
  br i1 %77, label %78, label %79

78:                                               ; preds = %71, %58
  call void @Gia_ManStop(ptr noundef nonnull %20) #15
  br label %Vec_IntFreeP.exit

79:                                               ; preds = %71, %68
  call void @Gia_ManStop(ptr noundef %59) #15
  %80 = getelementptr inbounds nuw i8, ptr %20, i64 264
  %81 = load ptr, ptr %80, align 8
  %82 = icmp eq ptr %81, null
  br i1 %82, label %Vec_IntFreeP.exit, label %83

83:                                               ; preds = %79
  %84 = getelementptr inbounds nuw i8, ptr %81, i64 8
  %85 = load ptr, ptr %84, align 8
  %.not.i = icmp eq ptr %85, null
  br i1 %.not.i, label %.thread.i, label %86

86:                                               ; preds = %83
  call void @free(ptr noundef nonnull %85) #15
  %87 = load ptr, ptr %80, align 8
  %88 = getelementptr inbounds nuw i8, ptr %87, i64 8
  store ptr null, ptr %88, align 8
  %.pre.i = load ptr, ptr %80, align 8
  %.not9.i = icmp eq ptr %.pre.i, null
  br i1 %.not9.i, label %Vec_IntFreeP.exit, label %.thread.i

.thread.i:                                        ; preds = %86, %83
  %89 = phi ptr [ %.pre.i, %86 ], [ %81, %83 ]
  call void @free(ptr noundef nonnull %89) #15
  store ptr null, ptr %80, align 8
  br label %Vec_IntFreeP.exit

Vec_IntFreeP.exit:                                ; preds = %.thread.i, %86, %79, %78
  %.1 = phi ptr [ %59, %78 ], [ %20, %79 ], [ %20, %86 ], [ %20, %.thread.i ]
  store i32 %39, ptr %17, align 8
  store i32 %41, ptr %40, align 4
  store i32 %43, ptr %42, align 4
  br label %90

90:                                               ; preds = %Vec_IntFreeP.exit, %34, %33
  %.085 = phi ptr [ %.1, %Vec_IntFreeP.exit ], [ %20, %34 ], [ %20, %33 ]
  %91 = call ptr @Gia_ManAreaBalance(ptr noundef %.085, i32 noundef 0, i32 noundef 1000000000, i32 noundef %7, i32 noundef 0) #15
  br i1 %.not90, label %93, label %92

92:                                               ; preds = %90
  call void @Gia_ManPrintStats(ptr noundef %91, ptr noundef null) #15
  br label %93

93:                                               ; preds = %92, %90
  call void @Gia_ManStop(ptr noundef %.085) #15
  br i1 %.not, label %96, label %94

94:                                               ; preds = %93
  %95 = call ptr @Jf_ManPerformMapping(ptr noundef %91, ptr noundef nonnull %9) #15
  br label %98

96:                                               ; preds = %93
  %97 = call ptr @Lf_ManPerformMapping(ptr noundef %91, ptr noundef nonnull %9) #15
  br label %98

98:                                               ; preds = %96, %94
  %.086 = phi ptr [ %95, %94 ], [ %97, %96 ]
  br i1 %.not90, label %100, label %99

99:                                               ; preds = %98
  call void @Gia_ManPrintStats(ptr noundef %.086, ptr noundef null) #15
  br label %100

100:                                              ; preds = %99, %98
  %.not92 = icmp eq ptr %91, %.086
  br i1 %.not92, label %102, label %101

101:                                              ; preds = %100
  call void @Gia_ManStop(ptr noundef %91) #15
  br label %102

102:                                              ; preds = %101, %100
  %103 = call ptr @Gia_ManAreaBalance(ptr noundef %.086, i32 noundef 0, i32 noundef 1000000000, i32 noundef %7, i32 noundef 0) #15
  br i1 %.not90, label %105, label %104

104:                                              ; preds = %102
  call void @Gia_ManPrintStats(ptr noundef %103, ptr noundef null) #15
  br label %105

105:                                              ; preds = %102, %104, %31
  %.086.sink = phi ptr [ %20, %31 ], [ %.086, %104 ], [ %.086, %102 ]
  %.0 = phi ptr [ %32, %31 ], [ %103, %104 ], [ %103, %102 ]
  call void @Gia_ManStop(ptr noundef %.086.sink) #15
  ret ptr %.0
}